target datalayout = "e-m:e-p270:32:32-p271:32:32-p272:64:64-i64:64-i128:128-f80:128-n8:16:32:64-S128"
target triple = "x86_64-pc-linux-gnu"

; Function Attrs: nounwind null_pointer_is_valid sspstrong uwtable
define i32 @crc32c_calculate_no_swap(ptr noundef %0, i32 noundef %1, i32 noundef %2) #0 {
  %4 = alloca ptr, align 8
  %5 = alloca i32, align 4
  %6 = alloca i32, align 4
  %7 = alloca ptr, align 8
  store ptr %0, ptr %4, align 8
  store i32 %1, ptr %5, align 4
  store i32 %2, ptr %6, align 4
  call void @llvm.lifetime.start.p0(i64 8, ptr %7) #4
  %8 = load ptr, ptr %4, align 8
  store ptr %8, ptr %7, align 8
  br label %9

9:                                                ; preds = %13, %3
  %10 = load i32, ptr %5, align 4
  %11 = add i32 %10, -1
  store i32 %11, ptr %5, align 4
  %12 = icmp sgt i32 %10, 0
  br i1 %12, label %13, label %27

13:                                               ; preds = %9
  %14 = load i32, ptr %6, align 4
  %15 = lshr i32 %14, 8
  %16 = load i32, ptr %6, align 4
  %17 = load ptr, ptr %7, align 8
  %18 = getelementptr i8, ptr %17, i32 1
  store ptr %18, ptr %7, align 8
  %19 = load i8, ptr %17, align 1
  %20 = zext i8 %19 to i32
  %21 = xor i32 %16, %20
  %22 = and i32 %21, 255
  %23 = zext i32 %22 to i64
  %24 = getelementptr [256 x i32], ptr @crc32c_table, i64 0, i64 %23
  %25 = load i32, ptr %24, align 4
  %26 = xor i32 %15, %25
  store i32 %26, ptr %6, align 4
  br label %9, !llvm.loop !8

27:                                               ; preds = %9
  %28 = load i32, ptr %6, align 4
  call void @llvm.lifetime.end.p0(i64 8, ptr %7) #4
  ret i32 %28
}