; Function Attrs: nofree norecurse nosync nounwind null_pointer_is_valid sspstrong memory(argmem: read) uwtable
define i32 @crc32c_calculate_no_swap(ptr noundef readonly captures(none) %0, i32 noundef %1, i32 noundef %2) local_unnamed_addr #1 {
  %4 = icmp sgt i32 %1, 0
  br i1 %4, label %.lr.ph, label %._crit_edge

.lr.ph:                                           ; preds = %3, %.lr.ph
  %.09 = phi ptr [ %7, %.lr.ph ], [ %0, %3 ]
  %.058 = phi i32 [ %12, %.lr.ph ], [ %2, %3 ]
  %.067 = phi i32 [ %5, %.lr.ph ], [ %1, %3 ]
  %5 = add nsw i32 %.067, -1
  %6 = lshr i32 %.058, 8
  %7 = getelementptr i8, ptr %.09, i64 1
  %8 = load i8, ptr %.09, align 1
  %.05.tr = trunc i32 %.058 to i8
  %.narrow = xor i8 %8, %.05.tr
  %9 = zext i8 %.narrow to i64
  %10 = getelementptr [256 x i32], ptr @crc32c_table, i64 0, i64 %9
  %11 = load i32, ptr %10, align 4
  %12 = xor i32 %11, %6
  %13 = icmp samesign ugt i32 %.067, 1
  br i1 %13, label %.lr.ph, label %._crit_edge, !llvm.loop !8

._crit_edge:                                      ; preds = %.lr.ph, %3
  %.05.lcssa = phi i32 [ %2, %3 ], [ %12, %.lr.ph ]
  ret i32 %.05.lcssa
}